; ModuleID = '21/2072.c'
source_filename = "21/2072.c"
target datalayout = "e-m:e-p270:32:32-p271:32:32-p272:64:64-i64:64-f80:128-n8:16:32:64-S128"
target triple = "x86_64-pc-linux-gnu"

@.str = private unnamed_addr constant [3 x i8] c"%d\00", align 1
@.str.1 = private unnamed_addr constant [4 x i8] c"%d,\00", align 1
@.str.2 = private unnamed_addr constant [4 x i8] c"%d\0A\00", align 1

; Function Attrs: noinline nounwind uwtable
define dso_local void @main() #0 {
  %1 = alloca i32, align 4
  %2 = alloca i32, align 4
  %3 = alloca i32, align 4
  %4 = alloca [301 x i32], align 16
  %5 = alloca [100 x i32], align 16
  %6 = alloca i32, align 4
  %7 = alloca i32, align 4
  %8 = alloca i32, align 4
  %9 = alloca i32, align 4
  %10 = alloca i32, align 4
  store i32 0, i32* %2, align 4
  %11 = bitcast [301 x i32]* %4 to i8*
  call void @llvm.memset.p0i8.i64(i8* align 16 %11, i8 0, i64 1204, i1 false)
  %12 = bitcast [100 x i32]* %5 to i8*
  call void @llvm.memset.p0i8.i64(i8* align 16 %12, i8 0, i64 400, i1 false)
  store i32 0, i32* %9, align 4
  %13 = call i32 (i8*, ...) @__isoc99_scanf(i8* getelementptr inbounds ([3 x i8], [3 x i8]* @.str, i64 0, i64 0), i32* %3)
  store i32 0, i32* %1, align 4
  br label %14

14:                                               ; preds = %29, %0
  %15 = load i32, i32* %1, align 4
  %16 = load i32, i32* %3, align 4
  %17 = icmp slt i32 %15, %16
  br i1 %17, label %18, label %32

18:                                               ; preds = %14
  %19 = load i32, i32* %1, align 4
  %20 = sext i32 %19 to i64
  %21 = getelementptr inbounds [301 x i32], [301 x i32]* %4, i64 0, i64 %20
  %22 = call i32 (i8*, ...) @__isoc99_scanf(i8* getelementptr inbounds ([3 x i8], [3 x i8]* @.str, i64 0, i64 0), i32* %21)
  %23 = load i32, i32* %1, align 4
  %24 = sext i32 %23 to i64
  %25 = getelementptr inbounds [301 x i32], [301 x i32]* %4, i64 0, i64 %24
  %26 = load i32, i32* %25, align 4
  %27 = load i32, i32* %9, align 4
  %28 = add nsw i32 %27, %26
  store i32 %28, i32* %9, align 4
  br label %29

29:                                               ; preds = %18
  %30 = load i32, i32* %1, align 4
  %31 = add nsw i32 %30, 1
  store i32 %31, i32* %1, align 4
  br label %14

32:                                               ; preds = %14
  %33 = load i32, i32* %9, align 4
  %34 = getelementptr inbounds [301 x i32], [301 x i32]* %4, i64 0, i64 0
  %35 = load i32, i32* %34, align 16
  %36 = load i32, i32* %3, align 4
  %37 = mul nsw i32 %35, %36
  %38 = icmp slt i32 %33, %37
  br i1 %38, label %39, label %46

39:                                               ; preds = %32
  %40 = getelementptr inbounds [301 x i32], [301 x i32]* %4, i64 0, i64 0
  %41 = load i32, i32* %40, align 16
  %42 = load i32, i32* %3, align 4
  %43 = mul nsw i32 %41, %42
  %44 = load i32, i32* %9, align 4
  %45 = sub nsw i32 %43, %44
  store i32 %45, i32* %10, align 4
  br label %53

46:                                               ; preds = %32
  %47 = load i32, i32* %9, align 4
  %48 = getelementptr inbounds [301 x i32], [301 x i32]* %4, i64 0, i64 0
  %49 = load i32, i32* %48, align 16
  %50 = load i32, i32* %3, align 4
  %51 = mul nsw i32 %49, %50
  %52 = sub nsw i32 %47, %51
  store i32 %52, i32* %10, align 4
  br label %53

53:                                               ; preds = %46, %39
  store i32 1, i32* %1, align 4
  br label %54

54:                                               ; preds = %100, %53
  %55 = load i32, i32* %1, align 4
  %56 = load i32, i32* %3, align 4
  %57 = icmp slt i32 %55, %56
  br i1 %57, label %58, label %103

58:                                               ; preds = %54
  %59 = load i32, i32* %9, align 4
  %60 = load i32, i32* %1, align 4
  %61 = sext i32 %60 to i64
  %62 = getelementptr inbounds [301 x i32], [301 x i32]* %4, i64 0, i64 %61
  %63 = load i32, i32* %62, align 4
  %64 = load i32, i32* %3, align 4
  %65 = mul nsw i32 %63, %64
  %66 = sub nsw i32 %59, %65
  %67 = load i32, i32* %10, align 4
  %68 = icmp sgt i32 %66, %67
  br i1 %68, label %69, label %78

69:                                               ; preds = %58
  %70 = load i32, i32* %9, align 4
  %71 = load i32, i32* %1, align 4
  %72 = sext i32 %71 to i64
  %73 = getelementptr inbounds [301 x i32], [301 x i32]* %4, i64 0, i64 %72
  %74 = load i32, i32* %73, align 4
  %75 = load i32, i32* %3, align 4
  %76 = mul nsw i32 %74, %75
  %77 = sub nsw i32 %70, %76
  store i32 %77, i32* %10, align 4
  br label %99

78:                                               ; preds = %58
  %79 = load i32, i32* %1, align 4
  %80 = sext i32 %79 to i64
  %81 = getelementptr inbounds [301 x i32], [301 x i32]* %4, i64 0, i64 %80
  %82 = load i32, i32* %81, align 4
  %83 = load i32, i32* %3, align 4
  %84 = mul nsw i32 %82, %83
  %85 = load i32, i32* %9, align 4
  %86 = sub nsw i32 %84, %85
  %87 = load i32, i32* %10, align 4
  %88 = icmp sgt i32 %86, %87
  br i1 %88, label %89, label %98

89:                                               ; preds = %78
  %90 = load i32, i32* %1, align 4
  %91 = sext i32 %90 to i64
  %92 = getelementptr inbounds [301 x i32], [301 x i32]* %4, i64 0, i64 %91
  %93 = load i32, i32* %92, align 4
  %94 = load i32, i32* %3, align 4
  %95 = mul nsw i32 %93, %94
  %96 = load i32, i32* %9, align 4
  %97 = sub nsw i32 %95, %96
  store i32 %97, i32* %10, align 4
  br label %98

98:                                               ; preds = %89, %78
  br label %99

99:                                               ; preds = %98, %69
  br label %100

100:                                              ; preds = %99
  %101 = load i32, i32* %1, align 4
  %102 = add nsw i32 %101, 1
  store i32 %102, i32* %1, align 4
  br label %54

103:                                              ; preds = %54
  store i32 0, i32* %1, align 4
  br label %104

104:                                              ; preds = %140, %103
  %105 = load i32, i32* %1, align 4
  %106 = load i32, i32* %3, align 4
  %107 = icmp slt i32 %105, %106
  br i1 %107, label %108, label %143

108:                                              ; preds = %104
  %109 = load i32, i32* %9, align 4
  %110 = load i32, i32* %1, align 4
  %111 = sext i32 %110 to i64
  %112 = getelementptr inbounds [301 x i32], [301 x i32]* %4, i64 0, i64 %111
  %113 = load i32, i32* %112, align 4
  %114 = load i32, i32* %3, align 4
  %115 = mul nsw i32 %113, %114
  %116 = sub nsw i32 %109, %115
  %117 = load i32, i32* %10, align 4
  %118 = icmp eq i32 %116, %117
  br i1 %118, label %130, label %119

119:                                              ; preds = %108
  %120 = load i32, i32* %1, align 4
  %121 = sext i32 %120 to i64
  %122 = getelementptr inbounds [301 x i32], [301 x i32]* %4, i64 0, i64 %121
  %123 = load i32, i32* %122, align 4
  %124 = load i32, i32* %3, align 4
  %125 = mul nsw i32 %123, %124
  %126 = load i32, i32* %9, align 4
  %127 = sub nsw i32 %125, %126
  %128 = load i32, i32* %10, align 4
  %129 = icmp eq i32 %127, %128
  br i1 %129, label %130, label %139

130:                                              ; preds = %119, %108
  %131 = load i32, i32* %1, align 4
  %132 = sext i32 %131 to i64
  %133 = getelementptr inbounds [301 x i32], [301 x i32]* %4, i64 0, i64 %132
  %134 = load i32, i32* %133, align 4
  %135 = load i32, i32* %2, align 4
  %136 = add nsw i32 %135, 1
  store i32 %136, i32* %2, align 4
  %137 = sext i32 %135 to i64
  %138 = getelementptr inbounds [100 x i32], [100 x i32]* %5, i64 0, i64 %137
  store i32 %134, i32* %138, align 4
  br label %139

139:                                              ; preds = %130, %119
  br label %140

140:                                              ; preds = %139
  %141 = load i32, i32* %1, align 4
  %142 = add nsw i32 %141, 1
  store i32 %142, i32* %1, align 4
  br label %104

143:                                              ; preds = %104
  store i32 0, i32* %6, align 4
  br label %144

144:                                              ; preds = %187, %143
  %145 = load i32, i32* %6, align 4
  %146 = load i32, i32* %2, align 4
  %147 = sub nsw i32 %146, 1
  %148 = icmp slt i32 %145, %147
  br i1 %148, label %149, label %190

149:                                              ; preds = %144
  %150 = load i32, i32* %6, align 4
  %151 = add nsw i32 %150, 1
  store i32 %151, i32* %7, align 4
  br label %152

152:                                              ; preds = %183, %149
  %153 = load i32, i32* %7, align 4
  %154 = load i32, i32* %2, align 4
  %155 = icmp slt i32 %153, %154
  br i1 %155, label %156, label %186

156:                                              ; preds = %152
  %157 = load i32, i32* %7, align 4
  %158 = sext i32 %157 to i64
  %159 = getelementptr inbounds [100 x i32], [100 x i32]* %5, i64 0, i64 %158
  %160 = load i32, i32* %159, align 4
  %161 = load i32, i32* %6, align 4
  %162 = sext i32 %161 to i64
  %163 = getelementptr inbounds [100 x i32], [100 x i32]* %5, i64 0, i64 %162
  %164 = load i32, i32* %163, align 4
  %165 = icmp slt i32 %160, %164
  br i1 %165, label %166, label %182

166:                                              ; preds = %156
  %167 = load i32, i32* %6, align 4
  %168 = sext i32 %167 to i64
  %169 = getelementptr inbounds [100 x i32], [100 x i32]* %5, i64 0, i64 %168
  %170 = load i32, i32* %169, align 4
  store i32 %170, i32* %8, align 4
  %171 = load i32, i32* %7, align 4
  %172 = sext i32 %171 to i64
  %173 = getelementptr inbounds [100 x i32], [100 x i32]* %5, i64 0, i64 %172
  %174 = load i32, i32* %173, align 4
  %175 = load i32, i32* %6, align 4
  %176 = sext i32 %175 to i64
  %177 = getelementptr inbounds [100 x i32], [100 x i32]* %5, i64 0, i64 %176
  store i32 %174, i32* %177, align 4
  %178 = load i32, i32* %8, align 4
  %179 = load i32, i32* %7, align 4
  %180 = sext i32 %179 to i64
  %181 = getelementptr inbounds [100 x i32], [100 x i32]* %5, i64 0, i64 %180
  store i32 %178, i32* %181, align 4
  br label %182

182:                                              ; preds = %166, %156
  br label %183

183:                                              ; preds = %182
  %184 = load i32, i32* %7, align 4
  %185 = add nsw i32 %184, 1
  store i32 %185, i32* %7, align 4
  br label %152

186:                                              ; preds = %152
  br label %187

187:                                              ; preds = %186
  %188 = load i32, i32* %6, align 4
  %189 = add nsw i32 %188, 1
  store i32 %189, i32* %6, align 4
  br label %144

190:                                              ; preds = %144
  store i32 0, i32* %1, align 4
  br label %191

191:                                              ; preds = %202, %190
  %192 = load i32, i32* %1, align 4
  %193 = load i32, i32* %2, align 4
  %194 = sub nsw i32 %193, 1
  %195 = icmp slt i32 %192, %194
  br i1 %195, label %196, label %205

196:                                              ; preds = %191
  %197 = load i32, i32* %1, align 4
  %198 = sext i32 %197 to i64
  %199 = getelementptr inbounds [100 x i32], [100 x i32]* %5, i64 0, i64 %198
  %200 = load i32, i32* %199, align 4
  %201 = call i32 (i8*, ...) @printf(i8* getelementptr inbounds ([4 x i8], [4 x i8]* @.str.1, i64 0, i64 0), i32 %200)
  br label %202

202:                                              ; preds = %196
  %203 = load i32, i32* %1, align 4
  %204 = add nsw i32 %203, 1
  store i32 %204, i32* %1, align 4
  br label %191

205:                                              ; preds = %191
  %206 = load i32, i32* %1, align 4
  %207 = sext i32 %206 to i64
  %208 = getelementptr inbounds [100 x i32], [100 x i32]* %5, i64 0, i64 %207
  %209 = load i32, i32* %208, align 4
  %210 = call i32 (i8*, ...) @printf(i8* getelementptr inbounds ([4 x i8], [4 x i8]* @.str.2, i64 0, i64 0), i32 %209)
  ret void
}

; Function Attrs: argmemonly nounwind willreturn
declare void @llvm.memset.p0i8.i64(i8* nocapture writeonly, i8, i64, i1 immarg) #1

declare dso_local i32 @__isoc99_scanf(i8*, ...) #2

declare dso_local i32 @printf(i8*, ...) #2


!llvm.module.flags = !{!0}
!llvm.ident = !{!1}

!0 = !{i32 1, !"wchar_size", i32 4}
!1 = !{!"clang version 10.0.0-4ubuntu1 "}
